target datalayout = "e-m:e-p270:32:32-p271:32:32-p272:64:64-i64:64-i128:128-f80:128-n8:16:32:64-S128"
target triple = "x86_64-pc-linux-gnu"

%struct.Expr_ = type { ptr, %union.SourceSpan, i16, %union.anon.29 }
%union.SourceSpan = type { i64 }
%union.anon.29 = type { %struct.ExprAnySwitch }
%struct.ExprAnySwitch = type { i8, %union.anon.31 }
%union.anon.31 = type { %struct.anon.32 }
%struct.anon.32 = type { ptr, %union.SourceSpan, ptr }

@.str.67 = private unnamed_addr constant [58 x i8] c"Expected a compile time constant value for this argument.\00", align 1

; Function Attrs: nounwind uwtable
define internal zeroext i1 @sema_check_builtin_args_const(ptr noundef %0, i64 noundef %1) #0 {
  %3 = alloca ptr, align 8
  %4 = alloca i1, align 1
  %5 = alloca ptr, align 8
  %6 = alloca i64, align 8
  %7 = alloca i64, align 8
  store ptr %0, ptr %5, align 8
  store i64 %1, ptr %6, align 8
  store i64 0, ptr %7, align 8
  br label %8

8:                                                ; preds = %34, %2
  %9 = load i64, ptr %7, align 8
  %10 = load i64, ptr %6, align 8
  %11 = icmp ult i64 %9, %10
  br i1 %11, label %12, label %37

12:                                               ; preds = %8
  %13 = load ptr, ptr %5, align 8
  %14 = load i64, ptr %7, align 8
  %15 = getelementptr inbounds ptr, ptr %13, i64 %14
  %16 = load ptr, ptr %15, align 8
  store ptr %16, ptr %3, align 8
  %17 = load ptr, ptr %3, align 8
  %18 = getelementptr inbounds %struct.Expr_, ptr %17, i32 0, i32 2
  %19 = load i16, ptr %18, align 8
  %20 = and i16 %19, 255
  %21 = zext i16 %20 to i32
  %22 = icmp eq i32 %21, 14
  br i1 %22, label %33, label %23

23:                                               ; preds = %12
  br label %24

24:                                               ; preds = %23
  %25 = load ptr, ptr %5, align 8
  %26 = load i64, ptr %7, align 8
  %27 = getelementptr inbounds ptr, ptr %25, i64 %26
  %28 = load ptr, ptr %27, align 8
  %29 = getelementptr inbounds %struct.Expr_, ptr %28, i32 0, i32 1
  %30 = getelementptr inbounds %union.SourceSpan, ptr %29, i32 0, i32 0
  %31 = load i64, ptr %30, align 8
  call void (i64, ptr, ...) @sema_error_at(i64 %31, ptr noundef @.str.67)
  store i1 false, ptr %4, align 1
  br label %38

32:                                               ; No predecessors!
  br label %33

33:                                               ; preds = %32, %12
  br label %34

34:                                               ; preds = %33
  %35 = load i64, ptr %7, align 8
  %36 = add i64 %35, 1
  store i64 %36, ptr %7, align 8
  br label %8, !llvm.loop !18

37:                                               ; preds = %8
  store i1 true, ptr %4, align 1
  br label %38

38:                                               ; preds = %37, %24
  %39 = load i1, ptr %4, align 1
  ret i1 %39
}