; Function Attrs: nounwind uwtable
define internal fastcc zeroext i1 @sema_check_builtin_args_const(ptr nocapture noundef readonly %0, i64 noundef %1) unnamed_addr #0 {
  %3 = icmp eq i64 %1, 0
  br i1 %3, label %.loopexit, label %.lr.ph.preheader

.lr.ph.preheader:                                 ; preds = %2
  %4 = load ptr, ptr %0, align 8
  %5 = getelementptr inbounds i8, ptr %4, i64 16
  %6 = load i16, ptr %5, align 8
  %7 = and i16 %6, 255
  %8 = icmp eq i16 %7, 14
  br i1 %8, label %.lr.ph25, label %.lr.ph._crit_edge

.lr.ph25:                                         ; preds = %.lr.ph.preheader, %.lr.ph
  %.01124 = phi i64 [ %9, %.lr.ph ], [ 0, %.lr.ph.preheader ]
  %9 = add nuw i64 %.01124, 1
  %exitcond = icmp eq i64 %9, %1
  br i1 %exitcond, label %.loopexit, label %.lr.ph, !llvm.loop !18

.lr.ph:                                           ; preds = %.lr.ph25
  %10 = getelementptr inbounds ptr, ptr %0, i64 %9
  %11 = load ptr, ptr %10, align 8
  %12 = getelementptr inbounds i8, ptr %11, i64 16
  %13 = load i16, ptr %12, align 8
  %14 = and i16 %13, 255
  %15 = icmp eq i16 %14, 14
  br i1 %15, label %.lr.ph25, label %.lr.ph._crit_edge.loopexit, !llvm.loop !18

.lr.ph._crit_edge.loopexit:                       ; preds = %.lr.ph
  %16 = icmp uge i64 %9, %1
  br label %.lr.ph._crit_edge

.lr.ph._crit_edge:                                ; preds = %.lr.ph._crit_edge.loopexit, %.lr.ph.preheader
  %.lcssa21 = phi i1 [ false, %.lr.ph.preheader ], [ %16, %.lr.ph._crit_edge.loopexit ]
  %.lcssa = phi ptr [ %4, %.lr.ph.preheader ], [ %11, %.lr.ph._crit_edge.loopexit ]
  %17 = getelementptr inbounds i8, ptr %.lcssa, i64 8
  %18 = load i64, ptr %17, align 8
  tail call void (i64, ptr, ...) @sema_error_at(i64 %18, ptr noundef nonnull @.str.67) #4
  br label %.loopexit

.loopexit:                                        ; preds = %.lr.ph25, %2, %.lr.ph._crit_edge
  %19 = phi i1 [ %.lcssa21, %.lr.ph._crit_edge ], [ true, %2 ], [ true, %.lr.ph25 ]
  ret i1 %19
}